; Function Attrs: nounwind uwtable
define hidden range(i32 0, 2) i32 @PKCS7_get_PEM_certificates(ptr noundef %0, ptr noundef %1) local_unnamed_addr #0 {
  %3 = alloca ptr, align 8
  %4 = alloca i64, align 8
  %5 = alloca %struct.cbs_st, align 8
  call void @llvm.lifetime.start.p0(i64 8, ptr nonnull %3) #4
  call void @llvm.lifetime.start.p0(i64 8, ptr nonnull %4) #4
  %6 = call i32 @PEM_bytes_read_bio(ptr noundef nonnull %3, ptr noundef nonnull %4, ptr noundef null, ptr noundef nonnull @.str.1, ptr noundef %1, ptr noundef null, ptr noundef null) #4
  %.not = icmp eq i32 %6, 0
  br i1 %.not, label %12, label %7

7:                                                ; preds = %2
  call void @llvm.lifetime.start.p0(i64 16, ptr nonnull %5) #4
  %8 = load ptr, ptr %3, align 8, !tbaa !6
  %9 = load i64, ptr %4, align 8, !tbaa !13
  call void @CBS_init(ptr noundef nonnull %5, ptr noundef %8, i64 noundef %9) #4
  %10 = call i32 @PKCS7_get_certificates(ptr noundef %0, ptr noundef nonnull %5)
  %11 = load ptr, ptr %3, align 8, !tbaa !6
  call void @free(ptr noundef %11) #4
  call void @llvm.lifetime.end.p0(i64 16, ptr nonnull %5) #4
  br label %12

12:                                               ; preds = %2, %7
  %.0 = phi i32 [ %10, %7 ], [ 0, %2 ]
  call void @llvm.lifetime.end.p0(i64 8, ptr nonnull %4) #4
  call void @llvm.lifetime.end.p0(i64 8, ptr nonnull %3) #4
  ret i32 %.0
}